; Function Attrs: mustprogress nounwind uwtable
define dso_local void @_ZN4llvm21MachineRegionInfoPass13releaseMemoryEv(ptr noundef nonnull align 8 dereferenceable(120) %0) unnamed_addr #0 align 2 {
  %2 = getelementptr inbounds i8, ptr %0, i64 96
  %3 = getelementptr inbounds i8, ptr %0, i64 104
  %4 = load i32, ptr %3, align 8
  %5 = icmp eq i32 %4, 0
  %6 = getelementptr inbounds i8, ptr %0, i64 108
  %7 = load i32, ptr %6, align 4
  %8 = icmp eq i32 %7, 0
  %or.cond.i = select i1 %5, i1 %8, i1 false
  br i1 %or.cond.i, label %_ZN4llvm12DenseMapBaseINS_8DenseMapIPNS_17MachineBasicBlockEPNS_13MachineRegionENS_12DenseMapInfoIS3_vEENS_6detail12DenseMapPairIS3_S5_EEEES3_S5_S7_SA_E5clearEv.exit.i, label %9

9:                                                ; preds = %1
  %10 = shl i32 %4, 2
  %11 = getelementptr inbounds i8, ptr %0, i64 112
  %12 = load i32, ptr %11, align 8
  %13 = icmp ult i32 %10, %12
  %14 = icmp ugt i32 %12, 64
  %or.cond.i.i = and i1 %13, %14
  br i1 %or.cond.i.i, label %15, label %16

15:                                               ; preds = %9
  tail call void @_ZN4llvm8DenseMapIPNS_17MachineBasicBlockEPNS_13MachineRegionENS_12DenseMapInfoIS2_vEENS_6detail12DenseMapPairIS2_S4_EEE16shrink_and_clearEv(ptr noundef nonnull align 8 dereferenceable(20) %2)
  br label %_ZN4llvm12DenseMapBaseINS_8DenseMapIPNS_17MachineBasicBlockEPNS_13MachineRegionENS_12DenseMapInfoIS3_vEENS_6detail12DenseMapPairIS3_S5_EEEES3_S5_S7_SA_E5clearEv.exit.i

16:                                               ; preds = %9
  %17 = load ptr, ptr %2, align 8
  %18 = zext i32 %12 to i64
  %19 = getelementptr inbounds %"struct.llvm::detail::DenseMapPair.259", ptr %17, i64 %18
  %.not6.i.i = icmp eq i32 %12, 0
  br i1 %.not6.i.i, label %._crit_edge.i.i, label %.lr.ph.i.i

.lr.ph.i.i:                                       ; preds = %16, %.lr.ph.i.i
  %.07.i.i = phi ptr [ %20, %.lr.ph.i.i ], [ %17, %16 ]
  store ptr inttoptr (i64 -4096 to ptr), ptr %.07.i.i, align 8
  %20 = getelementptr inbounds i8, ptr %.07.i.i, i64 16
  %.not.i.i = icmp eq ptr %20, %19
  br i1 %.not.i.i, label %._crit_edge.i.i, label %.lr.ph.i.i, !llvm.loop !205

._crit_edge.i.i:                                  ; preds = %.lr.ph.i.i, %16
  store i32 0, ptr %3, align 8
  store i32 0, ptr %6, align 4
  br label %_ZN4llvm12DenseMapBaseINS_8DenseMapIPNS_17MachineBasicBlockEPNS_13MachineRegionENS_12DenseMapInfoIS3_vEENS_6detail12DenseMapPairIS3_S5_EEEES3_S5_S7_SA_E5clearEv.exit.i

_ZN4llvm12DenseMapBaseINS_8DenseMapIPNS_17MachineBasicBlockEPNS_13MachineRegionENS_12DenseMapInfoIS3_vEENS_6detail12DenseMapPairIS3_S5_EEEES3_S5_S7_SA_E5clearEv.exit.i: ; preds = %._crit_edge.i.i, %15, %1
  %21 = getelementptr inbounds i8, ptr %0, i64 88
  %22 = load ptr, ptr %21, align 8
  %.not.i = icmp eq ptr %22, null
  br i1 %.not.i, label %_ZN4llvm14RegionInfoBaseINS_12RegionTraitsINS_15MachineFunctionEEEE13releaseMemoryEv.exit, label %23

23:                                               ; preds = %_ZN4llvm12DenseMapBaseINS_8DenseMapIPNS_17MachineBasicBlockEPNS_13MachineRegionENS_12DenseMapInfoIS3_vEENS_6detail12DenseMapPairIS3_S5_EEEES3_S5_S7_SA_E5clearEv.exit.i
  tail call void @_ZN4llvm13MachineRegionD1Ev(ptr noundef nonnull align 8 dereferenceable(112) %22) #18
  tail call void @_ZdlPvm(ptr noundef nonnull %22, i64 noundef 112) #21
  store ptr null, ptr %21, align 8
  br label %_ZN4llvm14RegionInfoBaseINS_12RegionTraitsINS_15MachineFunctionEEEE13releaseMemoryEv.exit

_ZN4llvm14RegionInfoBaseINS_12RegionTraitsINS_15MachineFunctionEEEE13releaseMemoryEv.exit: ; preds = %_ZN4llvm12DenseMapBaseINS_8DenseMapIPNS_17MachineBasicBlockEPNS_13MachineRegionENS_12DenseMapInfoIS3_vEENS_6detail12DenseMapPairIS3_S5_EEEES3_S5_S7_SA_E5clearEv.exit.i, %23
  ret void
}